; Function Attrs: mustprogress uwtable
define void @_ZN10open_spiel6euchre11EuchreState26ApplyDealerSelectionActionEi(ptr noundef nonnull align 8 captures(none) dereferenceable(824) %0, i32 noundef %1) local_unnamed_addr #3 align 2 personality ptr @__gxx_personality_v0 {
  %3 = alloca i64, align 8
  %4 = alloca i32, align 4
  %5 = alloca %"class.std::__cxx11::basic_string", align 8
  %6 = alloca i32, align 4
  %7 = getelementptr inbounds nuw i8, ptr %0, i64 32
  %8 = getelementptr inbounds nuw i8, ptr %0, i64 40
  %9 = load ptr, ptr %8, align 8
  %10 = load ptr, ptr %7, align 8
  %11 = ptrtoint ptr %9 to i64
  %12 = ptrtoint ptr %10 to i64
  %13 = sub i64 %11, %12
  %14 = ashr exact i64 %13, 4
  store i64 %14, ptr %3, align 8
  store i32 0, ptr %4, align 4
  %15 = icmp eq ptr %9, %10
  br i1 %15, label %20, label %16

16:                                               ; preds = %2
  store i32 502, ptr %6, align 4
  call void @_ZN10open_spiel8internal11SpielStrCatIJRA132_KcRA2_S2_iS6_RA21_S2_RA17_S2_RA4_S2_RmRA7_S2_RiEEENSt7__cxx1112basic_stringIcSt11char_traitsIcESaIcEEEDpOT_(ptr dead_on_unwind nonnull writable sret(%"class.std::__cxx11::basic_string") align 8 %5, ptr noundef nonnull align 1 dereferenceable(132) @.str.26, ptr noundef nonnull align 1 dereferenceable(2) @.str.27, ptr noundef nonnull align 4 dereferenceable(4) %6, ptr noundef nonnull align 1 dereferenceable(2) @.str.28, ptr noundef nonnull align 1 dereferenceable(21) @.str.62, ptr noundef nonnull align 1 dereferenceable(17) @.str.30, ptr noundef nonnull align 1 dereferenceable(4) @.str.31, ptr noundef nonnull align 8 dereferenceable(8) %3, ptr noundef nonnull align 1 dereferenceable(7) @.str.43, ptr noundef nonnull align 4 dereferenceable(4) %4)
  invoke void @_ZN10open_spiel15SpielFatalErrorERKNSt7__cxx1112basic_stringIcSt11char_traitsIcESaIcEEE(ptr noundef nonnull align 8 dereferenceable(32) %5) #24
          to label %17 unwind label %18

17:                                               ; preds = %16
  unreachable

18:                                               ; preds = %16
  %19 = landingpad { ptr, i32 }
          cleanup
  call void @_ZNSt7__cxx1112basic_stringIcSt11char_traitsIcESaIcEED1Ev(ptr noundef nonnull align 8 dereferenceable(32) %5) #25
  resume { ptr, i32 } %19

20:                                               ; preds = %2
  %21 = getelementptr inbounds nuw i8, ptr %0, i64 168
  store i32 %1, ptr %21, align 8
  %22 = getelementptr inbounds nuw i8, ptr %0, i64 172
  store i32 1, ptr %22, align 4
  ret void
}